; ModuleID = '49/1123.c'
source_filename = "49/1123.c"
target datalayout = "e-m:e-p270:32:32-p271:32:32-p272:64:64-i64:64-f80:128-n8:16:32:64-S128"
target triple = "x86_64-pc-linux-gnu"

@.str = private unnamed_addr constant [3 x i8] c"%c\00", align 1
@.str.1 = private unnamed_addr constant [4 x i8] c"%c\0A\00", align 1

; Function Attrs: noinline nounwind uwtable
define dso_local i32 @main() #0 {
  %1 = alloca i32, align 4
  %2 = alloca i32, align 4
  %3 = alloca i32, align 4
  %4 = alloca i32, align 4
  %5 = alloca i32, align 4
  %6 = alloca i32, align 4
  %7 = alloca i32, align 4
  %8 = alloca [500 x i8], align 16
  store i32 0, i32* %1, align 4
  store i32 0, i32* %5, align 4
  store i32 0, i32* %6, align 4
  store i32 0, i32* %7, align 4
  %9 = getelementptr inbounds [500 x i8], [500 x i8]* %8, i64 0, i64 0
  %10 = call i32 (i8*, ...) bitcast (i32 (...)* @gets to i32 (i8*, ...)*)(i8* %9)
  %11 = getelementptr inbounds [500 x i8], [500 x i8]* %8, i64 0, i64 0
  %12 = call i64 @strlen(i8* %11) #3
  %13 = trunc i64 %12 to i32
  store i32 %13, i32* %4, align 4
  store i32 1, i32* %3, align 4
  br label %14

14:                                               ; preds = %126, %0
  %15 = load i32, i32* %3, align 4
  %16 = load i32, i32* %4, align 4
  %17 = sub nsw i32 %16, 1
  %18 = icmp slt i32 %15, %17
  br i1 %18, label %19, label %129

19:                                               ; preds = %14
  store i32 0, i32* %2, align 4
  br label %20

20:                                               ; preds = %122, %19
  %21 = load i32, i32* %2, align 4
  %22 = load i32, i32* %3, align 4
  %23 = add nsw i32 %21, %22
  %24 = load i32, i32* %4, align 4
  %25 = icmp slt i32 %23, %24
  br i1 %25, label %26, label %125

26:                                               ; preds = %20
  %27 = load i32, i32* %3, align 4
  %28 = sub nsw i32 %27, 1
  %29 = srem i32 %28, 2
  %30 = icmp eq i32 %29, 0
  br i1 %30, label %31, label %62

31:                                               ; preds = %26
  store i32 0, i32* %6, align 4
  br label %32

32:                                               ; preds = %58, %31
  %33 = load i32, i32* %6, align 4
  %34 = load i32, i32* %3, align 4
  %35 = sub nsw i32 %34, 1
  %36 = sdiv i32 %35, 2
  %37 = icmp sle i32 %33, %36
  br i1 %37, label %38, label %61

38:                                               ; preds = %32
  %39 = load i32, i32* %2, align 4
  %40 = load i32, i32* %6, align 4
  %41 = add nsw i32 %39, %40
  %42 = sext i32 %41 to i64
  %43 = getelementptr inbounds [500 x i8], [500 x i8]* %8, i64 0, i64 %42
  %44 = load i8, i8* %43, align 1
  %45 = sext i8 %44 to i32
  %46 = load i32, i32* %2, align 4
  %47 = load i32, i32* %3, align 4
  %48 = add nsw i32 %46, %47
  %49 = load i32, i32* %6, align 4
  %50 = sub nsw i32 %48, %49
  %51 = sext i32 %50 to i64
  %52 = getelementptr inbounds [500 x i8], [500 x i8]* %8, i64 0, i64 %51
  %53 = load i8, i8* %52, align 1
  %54 = sext i8 %53 to i32
  %55 = icmp ne i32 %45, %54
  br i1 %55, label %56, label %57

56:                                               ; preds = %38
  store i32 1, i32* %5, align 4
  br label %57

57:                                               ; preds = %56, %38
  br label %58

58:                                               ; preds = %57
  %59 = load i32, i32* %6, align 4
  %60 = add nsw i32 %59, 1
  store i32 %60, i32* %6, align 4
  br label %32

61:                                               ; preds = %32
  br label %92

62:                                               ; preds = %26
  store i32 0, i32* %6, align 4
  br label %63

63:                                               ; preds = %88, %62
  %64 = load i32, i32* %6, align 4
  %65 = load i32, i32* %3, align 4
  %66 = sdiv i32 %65, 2
  %67 = icmp sle i32 %64, %66
  br i1 %67, label %68, label %91

68:                                               ; preds = %63
  %69 = load i32, i32* %2, align 4
  %70 = load i32, i32* %6, align 4
  %71 = add nsw i32 %69, %70
  %72 = sext i32 %71 to i64
  %73 = getelementptr inbounds [500 x i8], [500 x i8]* %8, i64 0, i64 %72
  %74 = load i8, i8* %73, align 1
  %75 = sext i8 %74 to i32
  %76 = load i32, i32* %2, align 4
  %77 = load i32, i32* %3, align 4
  %78 = add nsw i32 %76, %77
  %79 = load i32, i32* %6, align 4
  %80 = sub nsw i32 %78, %79
  %81 = sext i32 %80 to i64
  %82 = getelementptr inbounds [500 x i8], [500 x i8]* %8, i64 0, i64 %81
  %83 = load i8, i8* %82, align 1
  %84 = sext i8 %83 to i32
  %85 = icmp ne i32 %75, %84
  br i1 %85, label %86, label %87

86:                                               ; preds = %68
  store i32 1, i32* %5, align 4
  br label %87

87:                                               ; preds = %86, %68
  br label %88

88:                                               ; preds = %87
  %89 = load i32, i32* %6, align 4
  %90 = add nsw i32 %89, 1
  store i32 %90, i32* %6, align 4
  br label %63

91:                                               ; preds = %63
  br label %92

92:                                               ; preds = %91, %61
  %93 = load i32, i32* %5, align 4
  %94 = icmp eq i32 %93, 0
  br i1 %94, label %95, label %121

95:                                               ; preds = %92
  store i32 0, i32* %5, align 4
  br label %96

96:                                               ; preds = %109, %95
  %97 = load i32, i32* %5, align 4
  %98 = load i32, i32* %3, align 4
  %99 = icmp slt i32 %97, %98
  br i1 %99, label %100, label %112

100:                                              ; preds = %96
  %101 = load i32, i32* %2, align 4
  %102 = load i32, i32* %5, align 4
  %103 = add nsw i32 %101, %102
  %104 = sext i32 %103 to i64
  %105 = getelementptr inbounds [500 x i8], [500 x i8]* %8, i64 0, i64 %104
  %106 = load i8, i8* %105, align 1
  %107 = sext i8 %106 to i32
  %108 = call i32 (i8*, ...) @printf(i8* getelementptr inbounds ([3 x i8], [3 x i8]* @.str, i64 0, i64 0), i32 %107)
  br label %109

109:                                              ; preds = %100
  %110 = load i32, i32* %5, align 4
  %111 = add nsw i32 %110, 1
  store i32 %111, i32* %5, align 4
  br label %96

112:                                              ; preds = %96
  %113 = load i32, i32* %2, align 4
  %114 = load i32, i32* %3, align 4
  %115 = add nsw i32 %113, %114
  %116 = sext i32 %115 to i64
  %117 = getelementptr inbounds [500 x i8], [500 x i8]* %8, i64 0, i64 %116
  %118 = load i8, i8* %117, align 1
  %119 = sext i8 %118 to i32
  %120 = call i32 (i8*, ...) @printf(i8* getelementptr inbounds ([4 x i8], [4 x i8]* @.str.1, i64 0, i64 0), i32 %119)
  br label %121

121:                                              ; preds = %112, %92
  store i32 0, i32* %5, align 4
  br label %122

122:                                              ; preds = %121
  %123 = load i32, i32* %2, align 4
  %124 = add nsw i32 %123, 1
  store i32 %124, i32* %2, align 4
  br label %20

125:                                              ; preds = %20
  br label %126

126:                                              ; preds = %125
  %127 = load i32, i32* %3, align 4
  %128 = add nsw i32 %127, 1
  store i32 %128, i32* %3, align 4
  br label %14

129:                                              ; preds = %14
  ret i32 0
}

declare dso_local i32 @gets(...) #1

; Function Attrs: nounwind readonly
declare dso_local i64 @strlen(i8*) #2

declare dso_local i32 @printf(i8*, ...) #1


!llvm.module.flags = !{!0}
!llvm.ident = !{!1}

!0 = !{i32 1, !"wchar_size", i32 4}
!1 = !{!"clang version 10.0.0-4ubuntu1 "}
